Certificate:
    Data:
        Version: 3 (0x2)
        Serial Number: 1 (0x1)
        Signature Algorithm: md5WithRSAEncryption
        Issuer: CN=MyOwn Root Certificate Authority, ST=NC, C=US/emailAddress=root@tradeshowhell.com, O=Trade Show Hell, OU=IT Department
        Validity
            Not Before: Feb 10 19:02:03 2012 GMT
            Not After : Feb  8 19:02:03 2017 GMT
        Subject: CN=localhost, ST=NC, C=US/emailAddress=root@localhost, O=My Organization Name, OU=Subunit of My Large Organization
        Subject Public Key Info:
            Public Key Algorithm: rsaEncryption
            RSA Public Key: (1024 bit)
                Modulus (1024 bit):
                    00:a5:ec:e1:58:26:98:a2:ca:a9:2f:fa:f2:e0:a9:
                    ce:07:9c:ca:bf:30:ca:df:60:ec:41:6c:11:12:93:
                    5d:5f:67:38:5a:fd:14:f2:bb:1b:41:22:12:09:91:
                    ea:08:41:f6:b6:08:56:59:e7:e7:2c:2d:9a:29:fb:
                    3e:72:6e:bd:11:16:8b:3f:a3:0a:ae:15:c8:a2:83:
                    bc:da:4d:af:52:44:c1:99:0c:32:f3:62:03:61:67:
                    98:72:4d:15:75:98:3f:d7:74:d1:05:62:cc:72:e5:
                    69:96:95:b4:15:41:9f:9a:ed:1a:1b:dd:3a:c2:0e:
                    65:f6:76:f3:5b:05:b6:eb:69
                Exponent: 65537 (0x10001)
        X509v3 extensions:
            X509v3 Subject Alternative Name: 
                DNS:alt.tradeshowhell.com
            X509v3 Basic Constraints: 
                CA:FALSE
            Netscape Cert Type: 
                SSL Server
    Signature Algorithm: md5WithRSAEncryption
        30:bd:84:13:ba:94:f8:e7:41:53:24:bc:86:8f:8b:63:9b:21:
        8f:e7:f2:2d:74:c3:16:b5:1a:91:7b:4a:a4:fa:cd:0c:3d:a2:
        1e:0c:e4:1b:a7:3e:14:5b:91:9e:05:74:6a:f2:e9:f0:ec:cf:
        74:07:db:3b:d1:65:61:ae:df:05:31:53:8d:e3:1a:8b:12:c6:
        ca:47:d4:40:a4:a5:d7:2a:00:cb:d4:6b:77:da:53:53:1b:78:
        70:2a:88:c9:49:95:20:ec:36:d7:25:da:59:5d:57:fb:25:6c:
        d2:c8:bd:fd:04:f3:69:56:18:f2:47:0c:14:56:b1:e2:36:de:
        3f:1c:cb:81:6f:2d:de:c8:dc:9f:74:9c:32:30:ec:c8:97:56:
        c5:1b:b9:88:b4:0d:f2:c5:fc:bc:82:9b:2e:f6:af:55:67:14:
        e3:60:24:22:08:2e:26:e1:f6:af:5d:8e:78:c0:b5:9a:86:3b:
        b3:c9:a7:06:2c:56:26:4a:10:c4:76:a8:e8:e9:91:ae:e6:59:
        78:fb:99:ad:99:c3:6d:91:63:ee:9f:33:0d:16:b2:5f:40:34:
        e2:89:63:c2:28:fa:57:d7:46:30:1a:4e:d2:b3:82:2a:a0:07:
        0a:39:d6:c1:d6:0a:e1:ad:7b:f3:5a:be:cb:78:46:14:1d:fd:
        96:a8:93:ea
-----BEGIN CERTIFICATE-----
MIIDcDCCAligAwIBAgIBATANBgkqhkiG9w0BAQQFADCBnjEpMCcGA1UEAxMgTXlP
d24gUm9vdCBDZXJ0aWZpY2F0ZSBBdXRob3JpdHkxCzAJBgNVBAgTAk5DMQswCQYD
VQQGEwJVUzElMCMGCSqGSIb3DQEJARYWcm9vdEB0cmFkZXNob3doZWxsLmNvbTEY
MBYGA1UEChMPVHJhZGUgU2hvdyBIZWxsMRYwFAYDVQQLEw1JVCBEZXBhcnRtZW50
MB4XDTEyMDIxMDE5MDIwM1oXDTE3MDIwODE5MDIwM1owgZcxEjAQBgNVBAMTCWxv
Y2FsaG9zdDELMAkGA1UECBMCTkMxCzAJBgNVBAYTAlVTMR0wGwYJKoZIhvcNAQkB
Fg5yb290QGxvY2FsaG9zdDEdMBsGA1UEChMUTXkgT3JnYW5pemF0aW9uIE5hbWUx
KTAnBgNVBAsTIFN1YnVuaXQgb2YgTXkgTGFyZ2UgT3JnYW5pemF0aW9uMIGfMA0G
CSqGSIb3DQEBAQUAA4GNADCBiQKBgQCl7OFYJpiiyqkv+vLgqc4HnMq/MMrfYOxB
bBESk11fZzha/RTyuxtBIhIJkeoIQfa2CFZZ5+csLZop+z5ybr0RFos/owquFcii
g7zaTa9SRMGZDDLzYgNhZ5hyTRV1mD/XdNEFYsxy5WmWlbQVQZ+a7Rob3TrCDmX2
dvNbBbbraQIDAQABo0IwQDAgBgNVHREEGTAXghVhbHQudHJhZGVzaG93aGVsbC5j
b20wCQYDVR0TBAIwADARBglghkgBhvhCAQEEBAMCBkAwDQYJKoZIhvcNAQEEBQAD
ggEBADC9hBO6lPjnQVMkvIaPi2ObIY/n8i10wxa1GpF7SqT6zQw9oh4M5BunPhRb
kZ4FdGry6fDsz3QH2zvRZWGu3wUxU43jGosSxspH1ECkpdcqAMvUa3faU1MbeHAq
iMlJlSDsNtcl2lldV/slbNLIvf0E82lWGPJHDBRWseI23j8cy4FvLd7I3J90nDIw
7MiXVsUbuYi0DfLF/LyCmy72r1VnFONgJCIILibh9q9djnjAtZqGO7PJpwYsViZK
EMR2qOjpka7mWXj7ma2Zw22RY+6fMw0Wsl9ANOKJY8Io+lfXRjAaTtKzgiqgBwo5
1sHWCuGte/Navst4RhQd/Zaok+o=
-----END CERTIFICATE-----
